target datalayout = "e-m:e-p270:32:32-p271:32:32-p272:64:64-i64:64-i128:128-f80:128-n8:16:32:64-S128"
target triple = "x86_64-unknown-linux-gnu"

%struct.PRManagerHelper = type { %struct.PRManager, ptr, %struct.QemuMutex, ptr }
%struct.PRManager = type { %struct.Object }
%struct.Object = type { ptr, ptr, ptr, i32, ptr }
%struct.QemuMutex = type { %union.pthread_mutex_t, i8 }
%union.pthread_mutex_t = type { %struct.__pthread_mutex_s }
%struct.__pthread_mutex_s = type { i32, i32, i32, i32, i32, i16, i16, %struct.__pthread_internal_list }
%struct.__pthread_internal_list = type { ptr, ptr }

@.str = private unnamed_addr constant [18 x i8] c"pr-manager-helper\00", align 1
@.str.2 = private unnamed_addr constant [33 x i8] c"../qemu/scsi/pr-manager-helper.c\00", align 1
@__func__.PR_MANAGER_HELPER = private unnamed_addr constant [18 x i8] c"PR_MANAGER_HELPER\00", align 1
@__func__.pr_manager_helper_complete = private unnamed_addr constant [27 x i8] c"pr_manager_helper_complete\00", align 1
@qemu_mutex_lock_func = external global ptr, align 8

; Function Attrs: nounwind sspstrong uwtable
define internal ptr @PR_MANAGER_HELPER(ptr noundef %obj) #0 {
entry:
  %obj.addr = alloca ptr, align 8
  store ptr %obj, ptr %obj.addr, align 8
  %0 = load ptr, ptr %obj.addr, align 8
  %call = call ptr @object_dynamic_cast_assert(ptr noundef %0, ptr noundef @.str, ptr noundef @.str.2, i32 noundef 30, ptr noundef @__func__.PR_MANAGER_HELPER)
  ret ptr %call
}

; Function Attrs: nounwind sspstrong uwtable
define internal void @pr_manager_helper_complete(ptr noundef %uc, ptr noundef %errp) #0 {
entry:
  %uc.addr = alloca ptr, align 8
  %errp.addr = alloca ptr, align 8
  %pr_mgr = alloca ptr, align 8
  %_f = alloca ptr, align 8
  %tmp = alloca ptr, align 8
  %atomic-temp = alloca ptr, align 8
  store ptr %uc, ptr %uc.addr, align 8
  store ptr %errp, ptr %errp.addr, align 8
  %0 = load ptr, ptr %uc.addr, align 8
  %call = call ptr @PR_MANAGER_HELPER(ptr noundef %0)
  store ptr %call, ptr %pr_mgr, align 8
  br label %while.cond

while.cond:                                       ; preds = %do.end, %entry
  br i1 false, label %while.body, label %while.end

while.body:                                       ; preds = %while.cond
  br label %do.body

do.body:                                          ; preds = %while.body
  call void @g_assertion_message_expr(ptr noundef null, ptr noundef @.str.2, i32 noundef 267, ptr noundef @__func__.pr_manager_helper_complete, ptr noundef null) #7
  unreachable

do.end:                                           ; No predecessors!
  br label %while.cond

while.end:                                        ; preds = %while.cond
  %1 = load atomic i64, ptr @qemu_mutex_lock_func monotonic, align 8
  store i64 %1, ptr %atomic-temp, align 8
  %2 = load ptr, ptr %atomic-temp, align 8
  store ptr %2, ptr %tmp, align 8
  %3 = load ptr, ptr %tmp, align 8
  store ptr %3, ptr %_f, align 8
  %4 = load ptr, ptr %_f, align 8
  %5 = load ptr, ptr %pr_mgr, align 8
  %lock = getelementptr inbounds %struct.PRManagerHelper, ptr %5, i32 0, i32 2
  call void %4(ptr noundef %lock, ptr noundef @.str.2, i32 noundef 267)
  %6 = load ptr, ptr %pr_mgr, align 8
  %7 = load ptr, ptr %errp.addr, align 8
  %call1 = call i32 @pr_manager_helper_initialize(ptr noundef %6, ptr noundef %7)
  %8 = load ptr, ptr %pr_mgr, align 8
  %lock2 = getelementptr inbounds %struct.PRManagerHelper, ptr %8, i32 0, i32 2
  call void @qemu_mutex_unlock_impl(ptr noundef %lock2, ptr noundef @.str.2, i32 noundef 269)
  ret void
}