; Function Attrs: nounwind sspstrong uwtable
define internal void @pr_manager_helper_complete(ptr noundef %uc, ptr noundef %errp) #0 {
entry:
  %call.i = tail call ptr @object_dynamic_cast_assert(ptr noundef %uc, ptr noundef nonnull @.str, ptr noundef nonnull @.str.2, i32 noundef 30, ptr noundef nonnull @__func__.PR_MANAGER_HELPER) #7
  %0 = load atomic i64, ptr @qemu_mutex_lock_func monotonic, align 8
  %1 = inttoptr i64 %0 to ptr
  %lock = getelementptr inbounds nuw i8, ptr %call.i, i64 48
  tail call void %1(ptr noundef nonnull %lock, ptr noundef nonnull @.str.2, i32 noundef 267) #7
  %call1 = tail call fastcc i32 @pr_manager_helper_initialize(ptr noundef %call.i, ptr noundef %errp)
  tail call void @qemu_mutex_unlock_impl(ptr noundef nonnull %lock, ptr noundef nonnull @.str.2, i32 noundef 269) #7
  ret void
}